target datalayout = "e-m:e-p270:32:32-p271:32:32-p272:64:64-i64:64-i128:128-f80:128-n8:16:32:64-S128"
target triple = "x86_64-pc-linux-gnu"

%class.anon.35 = type { i8 }
%"struct.std::atomic.0" = type { %"struct.std::__atomic_base.1" }
%"struct.std::__atomic_base.1" = type { i64 }
%"struct.std::atomic.6" = type { %"struct.std::__atomic_base.7" }
%"struct.std::__atomic_base.7" = type { i8 }
%"struct.std::pair" = type { i64, i64 }
%"class.std::tuple" = type { %"struct.std::_Tuple_impl" }
%"struct.std::_Tuple_impl" = type { %"struct.std::_Tuple_impl.19", %"struct.std::_Head_base.20" }
%"struct.std::_Tuple_impl.19" = type { %"struct.std::_Head_base" }
%"struct.std::_Head_base" = type { ptr }
%"struct.std::_Head_base.20" = type { ptr }
%"struct.mold::TimerRecord" = type <{ %"class.std::__cxx11::basic_string", ptr, %"class.tbb::detail::d1::concurrent_vector.11", i64, i64, i64, i64, i8, [7 x i8] }>
%"class.std::__cxx11::basic_string" = type { %"struct.std::__cxx11::basic_string<char>::_Alloc_hider", i64, %union.anon }
%"struct.std::__cxx11::basic_string<char>::_Alloc_hider" = type { ptr }
%union.anon = type { i64, [8 x i8] }
%"class.tbb::detail::d1::concurrent_vector.11" = type { %"class.tbb::detail::d1::segment_table.base.17", [7 x i8] }
%"class.tbb::detail::d1::segment_table.base.17" = type <{ ptr, [8 x i8], %"struct.std::atomic.13", [3 x %"struct.std::atomic.15"], %"struct.std::atomic.0", %"struct.std::atomic.0", %"struct.std::atomic.6" }>
%"struct.std::atomic.13" = type { %"struct.std::__atomic_base.14" }
%"struct.std::__atomic_base.14" = type { ptr }
%"struct.std::atomic.15" = type { %"struct.std::__atomic_base.16" }
%"struct.std::__atomic_base.16" = type { ptr }
%"class.std::chrono::duration" = type { i64 }
%"class.std::chrono::time_point" = type { %"class.std::chrono::duration" }
%struct.rusage = type { %struct.timeval, %struct.timeval, %union.anon.37, %union.anon.38, %union.anon.39, %union.anon.40, %union.anon.41, %union.anon.42, %union.anon.43, %union.anon.44, %union.anon.45, %union.anon.46, %union.anon.47, %union.anon.48, %union.anon.49, %union.anon.50 }
%struct.timeval = type { i64, i64 }
%union.anon.37 = type { i64 }
%union.anon.38 = type { i64 }
%union.anon.39 = type { i64 }
%union.anon.40 = type { i64 }
%union.anon.41 = type { i64 }
%union.anon.42 = type { i64 }
%union.anon.43 = type { i64 }
%union.anon.44 = type { i64 }
%union.anon.45 = type { i64 }
%union.anon.46 = type { i64 }
%union.anon.47 = type { i64 }
%union.anon.48 = type { i64 }
%union.anon.49 = type { i64 }
%union.anon.50 = type { i64 }

@__const._ZN4moldL9get_usageEv.to_nsec = private unnamed_addr constant %class.anon.35 undef, align 1

; Function Attrs: mustprogress nounwind
define linkonce_odr dso_local void @_ZNSt10_Head_baseILm1ERlLb0EEC2ES0_(ptr noundef nonnull align 8 dereferenceable(8) %0, ptr noundef nonnull align 8 dereferenceable(8) %1) unnamed_addr #4 comdat align 2 {
  %3 = alloca ptr, align 8
  %4 = alloca ptr, align 8
  store ptr %0, ptr %3, align 8, !tbaa !159
  store ptr %1, ptr %4, align 8, !tbaa !79
  %5 = load ptr, ptr %3, align 8
  %6 = getelementptr inbounds nuw %"struct.std::_Head_base", ptr %5, i32 0, i32 0
  %7 = load ptr, ptr %4, align 8, !tbaa !79
  store ptr %7, ptr %6, align 8, !tbaa !79
  ret void
}

; Function Attrs: mustprogress nounwind
define linkonce_odr dso_local void @_ZNSt10_Head_baseILm0ERlLb0EEC2ES0_(ptr noundef nonnull align 8 dereferenceable(8) %0, ptr noundef nonnull align 8 dereferenceable(8) %1) unnamed_addr #4 comdat align 2 {
  %3 = alloca ptr, align 8
  %4 = alloca ptr, align 8
  store ptr %0, ptr %3, align 8, !tbaa !157
  store ptr %1, ptr %4, align 8, !tbaa !79
  %5 = load ptr, ptr %3, align 8
  %6 = getelementptr inbounds nuw %"struct.std::_Head_base.20", ptr %5, i32 0, i32 0
  %7 = load ptr, ptr %4, align 8, !tbaa !79
  store ptr %7, ptr %6, align 8, !tbaa !79
  ret void
}

; Function Attrs: mustprogress nounwind
define linkonce_odr dso_local void @_ZNSt11_Tuple_implILm1EJRlEEC2ES0_(ptr noundef nonnull align 8 dereferenceable(8) %0, ptr noundef nonnull align 8 dereferenceable(8) %1) unnamed_addr #4 comdat align 2 {
  %3 = alloca ptr, align 8
  %4 = alloca ptr, align 8
  store ptr %0, ptr %3, align 8, !tbaa !155
  store ptr %1, ptr %4, align 8, !tbaa !79
  %5 = load ptr, ptr %3, align 8
  %6 = load ptr, ptr %4, align 8, !tbaa !79
  call void @_ZNSt10_Head_baseILm1ERlLb0EEC2ES0_(ptr noundef nonnull align 8 dereferenceable(8) %5, ptr noundef nonnull align 8 dereferenceable(8) %6)
  ret void
}

; Function Attrs: mustprogress nounwind
define linkonce_odr dso_local noundef nonnull align 8 dereferenceable(8) ptr @_ZNSt10_Head_baseILm1ERlLb0EE7_M_headERS1_(ptr noundef nonnull align 8 dereferenceable(8) %0) #4 comdat align 2 {
  %2 = alloca ptr, align 8
  store ptr %0, ptr %2, align 8, !tbaa !159
  %3 = load ptr, ptr %2, align 8, !tbaa !159
  %4 = getelementptr inbounds nuw %"struct.std::_Head_base", ptr %3, i32 0, i32 0
  %5 = load ptr, ptr %4, align 8, !tbaa !163
  ret ptr %5
}

; Function Attrs: mustprogress nounwind
define linkonce_odr dso_local noundef nonnull align 8 dereferenceable(8) ptr @_ZNSt10_Head_baseILm0ERlLb0EE7_M_headERS1_(ptr noundef nonnull align 8 dereferenceable(8) %0) #4 comdat align 2 {
  %2 = alloca ptr, align 8
  store ptr %0, ptr %2, align 8, !tbaa !157
  %3 = load ptr, ptr %2, align 8, !tbaa !157
  %4 = getelementptr inbounds nuw %"struct.std::_Head_base.20", ptr %3, i32 0, i32 0
  %5 = load ptr, ptr %4, align 8, !tbaa !161
  ret ptr %5
}

; Function Attrs: mustprogress nounwind
define linkonce_odr dso_local void @_ZNSt11_Tuple_implILm0EJRlS0_EEC2ES0_S0_(ptr noundef nonnull align 8 dereferenceable(16) %0, ptr noundef nonnull align 8 dereferenceable(8) %1, ptr noundef nonnull align 8 dereferenceable(8) %2) unnamed_addr #4 comdat align 2 {
  %4 = alloca ptr, align 8
  %5 = alloca ptr, align 8
  %6 = alloca ptr, align 8
  store ptr %0, ptr %4, align 8, !tbaa !153
  store ptr %1, ptr %5, align 8, !tbaa !79
  store ptr %2, ptr %6, align 8, !tbaa !79
  %7 = load ptr, ptr %4, align 8
  %8 = load ptr, ptr %6, align 8, !tbaa !79
  call void @_ZNSt11_Tuple_implILm1EJRlEEC2ES0_(ptr noundef nonnull align 8 dereferenceable(8) %7, ptr noundef nonnull align 8 dereferenceable(8) %8)
  %9 = getelementptr inbounds i8, ptr %7, i64 8
  %10 = load ptr, ptr %5, align 8, !tbaa !79
  call void @_ZNSt10_Head_baseILm0ERlLb0EEC2ES0_(ptr noundef nonnull align 8 dereferenceable(8) %9, ptr noundef nonnull align 8 dereferenceable(8) %10)
  ret void
}

; Function Attrs: mustprogress nounwind
define linkonce_odr dso_local noundef i64 @_ZNKSt6chrono8durationIlSt5ratioILl1ELl1000000000EEE5countEv(ptr noundef nonnull align 8 dereferenceable(8) %0) #4 comdat align 2 {
  %2 = alloca ptr, align 8
  store ptr %0, ptr %2, align 8, !tbaa !143
  %3 = load ptr, ptr %2, align 8
  %4 = getelementptr inbounds nuw %"class.std::chrono::duration", ptr %3, i32 0, i32 0
  %5 = load i64, ptr %4, align 8, !tbaa !145
  ret i64 %5
}

; Function Attrs: mustprogress nounwind
define linkonce_odr dso_local i64 @_ZNKSt6chrono10time_pointINS_3_V212steady_clockENS_8durationIlSt5ratioILl1ELl1000000000EEEEE16time_since_epochEv(ptr noundef nonnull align 8 dereferenceable(8) %0) #4 comdat align 2 {
  %2 = alloca %"class.std::chrono::duration", align 8
  %3 = alloca ptr, align 8
  store ptr %0, ptr %3, align 8, !tbaa !140
  %4 = load ptr, ptr %3, align 8
  %5 = getelementptr inbounds nuw %"class.std::chrono::time_point", ptr %4, i32 0, i32 0
  call void @llvm.memcpy.p0.p0.i64(ptr align 8 %2, ptr align 8 %5, i64 8, i1 false), !tbaa.struct !142
  %6 = getelementptr inbounds nuw %"class.std::chrono::duration", ptr %2, i32 0, i32 0
  %7 = load i64, ptr %6, align 8
  ret i64 %7
}

; Function Attrs: mustprogress nounwind
define linkonce_odr dso_local noundef nonnull align 8 dereferenceable(8) ptr @_ZNSt11_Tuple_implILm1EJRlEE7_M_headERS1_(ptr noundef nonnull align 8 dereferenceable(8) %0) #4 comdat align 2 {
  %2 = alloca ptr, align 8
  store ptr %0, ptr %2, align 8, !tbaa !155
  %3 = load ptr, ptr %2, align 8, !tbaa !155
  %4 = call noundef nonnull align 8 dereferenceable(8) ptr @_ZNSt10_Head_baseILm1ERlLb0EE7_M_headERS1_(ptr noundef nonnull align 8 dereferenceable(8) %3) #3
  ret ptr %4
}

; Function Attrs: mustprogress nounwind
define linkonce_odr dso_local noundef nonnull align 8 dereferenceable(8) ptr @_ZNSt11_Tuple_implILm0EJRlS0_EE7_M_tailERS1_(ptr noundef nonnull align 8 dereferenceable(16) %0) #4 comdat align 2 {
  %2 = alloca ptr, align 8
  store ptr %0, ptr %2, align 8, !tbaa !153
  %3 = load ptr, ptr %2, align 8, !tbaa !153
  ret ptr %3
}

; Function Attrs: mustprogress nounwind
define linkonce_odr dso_local noundef nonnull align 8 dereferenceable(8) ptr @_ZNSt11_Tuple_implILm0EJRlS0_EE7_M_headERS1_(ptr noundef nonnull align 8 dereferenceable(16) %0) #4 comdat align 2 {
  %2 = alloca ptr, align 8
  store ptr %0, ptr %2, align 8, !tbaa !153
  %3 = load ptr, ptr %2, align 8, !tbaa !153
  %4 = getelementptr inbounds i8, ptr %3, i64 8
  %5 = call noundef nonnull align 8 dereferenceable(8) ptr @_ZNSt10_Head_baseILm0ERlLb0EE7_M_headERS1_(ptr noundef nonnull align 8 dereferenceable(8) %4) #3
  ret ptr %5
}

; Function Attrs: mustprogress nounwind
define linkonce_odr dso_local void @_ZNSt5tupleIJRlS0_EEC2ILb1ETnNSt9enable_ifIXclsr4_TCCIXT_EEE29__is_implicitly_constructibleIS0_S0_EEEbE4typeELb1EEES0_S0_(ptr noundef nonnull align 8 dereferenceable(16) %0, ptr noundef nonnull align 8 dereferenceable(8) %1, ptr noundef nonnull align 8 dereferenceable(8) %2) unnamed_addr #4 comdat align 2 {
  %4 = alloca ptr, align 8
  %5 = alloca ptr, align 8
  %6 = alloca ptr, align 8
  store ptr %0, ptr %4, align 8, !tbaa !81
  store ptr %1, ptr %5, align 8, !tbaa !79
  store ptr %2, ptr %6, align 8, !tbaa !79
  %7 = load ptr, ptr %4, align 8
  %8 = load ptr, ptr %5, align 8, !tbaa !79
  %9 = load ptr, ptr %6, align 8, !tbaa !79
  call void @_ZNSt11_Tuple_implILm0EJRlS0_EEC2ES0_S0_(ptr noundef nonnull align 8 dereferenceable(16) %7, ptr noundef nonnull align 8 dereferenceable(8) %8, ptr noundef nonnull align 8 dereferenceable(8) %9)
  ret void
}

; Function Attrs: mustprogress nounwind
define linkonce_odr dso_local void @_ZNSt4pairIllEC2IllQcl16_S_constructibleITL0__TL0_0_EEEEOT_OT0_(ptr noundef nonnull align 8 dereferenceable(16) %0, ptr noundef nonnull align 8 dereferenceable(8) %1, ptr noundef nonnull align 8 dereferenceable(8) %2) unnamed_addr #4 comdat align 2 {
  %4 = alloca ptr, align 8
  %5 = alloca ptr, align 8
  %6 = alloca ptr, align 8
  store ptr %0, ptr %4, align 8, !tbaa !83
  store ptr %1, ptr %5, align 8, !tbaa !79
  store ptr %2, ptr %6, align 8, !tbaa !79
  %7 = load ptr, ptr %4, align 8
  %8 = getelementptr inbounds nuw %"struct.std::pair", ptr %7, i32 0, i32 0
  %9 = load ptr, ptr %5, align 8, !tbaa !79
  %10 = load i64, ptr %9, align 8, !tbaa !39
  store i64 %10, ptr %8, align 8, !tbaa !150
  %11 = getelementptr inbounds nuw %"struct.std::pair", ptr %7, i32 0, i32 1
  %12 = load ptr, ptr %6, align 8, !tbaa !79
  %13 = load i64, ptr %12, align 8, !tbaa !39
  store i64 %13, ptr %11, align 8, !tbaa !152
  ret void
}

; Function Attrs: inlinehint mustprogress nounwind
define internal noundef i64 @"_ZZN4moldL9get_usageEvENK3$_0clE7timeval"(ptr noundef nonnull align 1 dereferenceable(1) %0, i64 %1, i64 %2) #5 align 2 {
  %4 = alloca %struct.timeval, align 8
  %5 = alloca ptr, align 8
  %6 = getelementptr inbounds nuw { i64, i64 }, ptr %4, i32 0, i32 0
  store i64 %1, ptr %6, align 8
  %7 = getelementptr inbounds nuw { i64, i64 }, ptr %4, i32 0, i32 1
  store i64 %2, ptr %7, align 8
  store ptr %0, ptr %5, align 8, !tbaa !56
  %8 = getelementptr inbounds nuw %struct.timeval, ptr %4, i32 0, i32 0
  %9 = load i64, ptr %8, align 8, !tbaa !147
  %10 = mul nsw i64 %9, 1000000000
  %11 = getelementptr inbounds nuw %struct.timeval, ptr %4, i32 0, i32 1
  %12 = load i64, ptr %11, align 8, !tbaa !149
  %13 = mul nsw i64 %12, 1000
  %14 = add nsw i64 %10, %13
  ret i64 %14
}

; Function Attrs: mustprogress nounwind
define internal noundef i64 @_ZN4moldL8now_nsecEv() #4 {
  %1 = alloca %"class.std::chrono::duration", align 8
  %2 = alloca %"class.std::chrono::time_point", align 8
  call void @llvm.lifetime.start.p0(i64 8, ptr %1) #3
  call void @llvm.lifetime.start.p0(i64 8, ptr %2) #3
  %3 = call i64 @_ZNSt6chrono3_V212steady_clock3nowEv() #3
  %4 = getelementptr inbounds nuw %"class.std::chrono::time_point", ptr %2, i32 0, i32 0
  %5 = getelementptr inbounds nuw %"class.std::chrono::duration", ptr %4, i32 0, i32 0
  store i64 %3, ptr %5, align 8
  %6 = call i64 @_ZNKSt6chrono10time_pointINS_3_V212steady_clockENS_8durationIlSt5ratioILl1ELl1000000000EEEEE16time_since_epochEv(ptr noundef nonnull align 8 dereferenceable(8) %2)
  %7 = getelementptr inbounds nuw %"class.std::chrono::duration", ptr %1, i32 0, i32 0
  store i64 %6, ptr %7, align 8
  %8 = call noundef i64 @_ZNKSt6chrono8durationIlSt5ratioILl1ELl1000000000EEE5countEv(ptr noundef nonnull align 8 dereferenceable(8) %1)
  call void @llvm.lifetime.end.p0(i64 8, ptr %2) #3
  call void @llvm.lifetime.end.p0(i64 8, ptr %1) #3
  ret i64 %8
}

; Function Attrs: mustprogress nounwind
define linkonce_odr dso_local noundef nonnull align 8 dereferenceable(16) ptr @_ZNSt5tupleIJRlS0_EEaSIllEENSt9enable_ifIXcl12__assignableIT_T0_EEERS1_E4typeEOSt4pairIS4_S5_E(ptr noundef nonnull align 8 dereferenceable(16) %0, ptr noundef nonnull align 8 dereferenceable(16) %1) #4 comdat align 2 {
  %3 = alloca ptr, align 8
  %4 = alloca ptr, align 8
  store ptr %0, ptr %3, align 8, !tbaa !81
  store ptr %1, ptr %4, align 8, !tbaa !83
  %5 = load ptr, ptr %3, align 8
  %6 = load ptr, ptr %4, align 8, !tbaa !83
  %7 = getelementptr inbounds nuw %"struct.std::pair", ptr %6, i32 0, i32 0
  %8 = load i64, ptr %7, align 8, !tbaa !39
  %9 = call noundef nonnull align 8 dereferenceable(8) ptr @_ZNSt11_Tuple_implILm0EJRlS0_EE7_M_headERS1_(ptr noundef nonnull align 8 dereferenceable(16) %5) #3
  store i64 %8, ptr %9, align 8, !tbaa !39
  %10 = load ptr, ptr %4, align 8, !tbaa !83
  %11 = getelementptr inbounds nuw %"struct.std::pair", ptr %10, i32 0, i32 1
  %12 = load i64, ptr %11, align 8, !tbaa !39
  %13 = call noundef nonnull align 8 dereferenceable(8) ptr @_ZNSt11_Tuple_implILm0EJRlS0_EE7_M_tailERS1_(ptr noundef nonnull align 8 dereferenceable(16) %5) #3
  %14 = call noundef nonnull align 8 dereferenceable(8) ptr @_ZNSt11_Tuple_implILm1EJRlEE7_M_headERS1_(ptr noundef nonnull align 8 dereferenceable(8) %5) #3
  store i64 %12, ptr %14, align 8, !tbaa !39
  ret ptr %5
}

; Function Attrs: mustprogress nounwind
define linkonce_odr dso_local void @_ZSt3tieIJllEESt5tupleIJDpRT_EES3_(ptr dead_on_unwind noalias writable sret(%"class.std::tuple") align 8 %0, ptr noundef nonnull align 8 dereferenceable(8) %1, ptr noundef nonnull align 8 dereferenceable(8) %2) #4 comdat {
  %4 = alloca ptr, align 8
  %5 = alloca ptr, align 8
  %6 = alloca ptr, align 8
  store ptr %0, ptr %4, align 8
  store ptr %1, ptr %5, align 8, !tbaa !79
  store ptr %2, ptr %6, align 8, !tbaa !79
  %7 = load ptr, ptr %5, align 8, !tbaa !79
  %8 = load ptr, ptr %6, align 8, !tbaa !79
  call void @_ZNSt5tupleIJRlS0_EEC2ILb1ETnNSt9enable_ifIXclsr4_TCCIXT_EEE29__is_implicitly_constructibleIS0_S0_EEEbE4typeELb1EEES0_S0_(ptr noundef nonnull align 8 dereferenceable(16) %0, ptr noundef nonnull align 8 dereferenceable(8) %7, ptr noundef nonnull align 8 dereferenceable(8) %8) #3
  ret void
}

; Function Attrs: mustprogress nounwind
define internal { i64, i64 } @_ZN4moldL9get_usageEv() #4 {
  %1 = alloca %"struct.std::pair", align 8
  %2 = alloca %class.anon.35, align 1
  %3 = alloca %struct.rusage, align 8
  %4 = alloca i64, align 8
  %5 = alloca %struct.timeval, align 8
  %6 = alloca i64, align 8
  %7 = alloca %struct.timeval, align 8
  call void @llvm.lifetime.start.p0(i64 1, ptr %2) #3
  call void @llvm.memcpy.p0.p0.i64(ptr align 1 %2, ptr align 1 @__const._ZN4moldL9get_usageEv.to_nsec, i64 1, i1 false)
  call void @llvm.lifetime.start.p0(i64 144, ptr %3) #3
  %8 = call i32 @getrusage(i32 noundef 0, ptr noundef %3) #3
  call void @llvm.lifetime.start.p0(i64 8, ptr %4) #3
  %9 = getelementptr inbounds nuw %struct.rusage, ptr %3, i32 0, i32 0
  call void @llvm.memcpy.p0.p0.i64(ptr align 8 %5, ptr align 8 %9, i64 16, i1 false), !tbaa.struct !78
  %10 = getelementptr inbounds nuw { i64, i64 }, ptr %5, i32 0, i32 0
  %11 = load i64, ptr %10, align 8
  %12 = getelementptr inbounds nuw { i64, i64 }, ptr %5, i32 0, i32 1
  %13 = load i64, ptr %12, align 8
  %14 = call noundef i64 @"_ZZN4moldL9get_usageEvENK3$_0clE7timeval"(ptr noundef nonnull align 1 dereferenceable(1) %2, i64 %11, i64 %13)
  store i64 %14, ptr %4, align 8, !tbaa !39
  call void @llvm.lifetime.start.p0(i64 8, ptr %6) #3
  %15 = getelementptr inbounds nuw %struct.rusage, ptr %3, i32 0, i32 1
  call void @llvm.memcpy.p0.p0.i64(ptr align 8 %7, ptr align 8 %15, i64 16, i1 false), !tbaa.struct !78
  %16 = getelementptr inbounds nuw { i64, i64 }, ptr %7, i32 0, i32 0
  %17 = load i64, ptr %16, align 8
  %18 = getelementptr inbounds nuw { i64, i64 }, ptr %7, i32 0, i32 1
  %19 = load i64, ptr %18, align 8
  %20 = call noundef i64 @"_ZZN4moldL9get_usageEvENK3$_0clE7timeval"(ptr noundef nonnull align 1 dereferenceable(1) %2, i64 %17, i64 %19)
  store i64 %20, ptr %6, align 8, !tbaa !39
  call void @_ZNSt4pairIllEC2IllQcl16_S_constructibleITL0__TL0_0_EEEEOT_OT0_(ptr noundef nonnull align 8 dereferenceable(16) %1, ptr noundef nonnull align 8 dereferenceable(8) %4, ptr noundef nonnull align 8 dereferenceable(8) %6) #3
  call void @llvm.lifetime.end.p0(i64 8, ptr %6) #3
  call void @llvm.lifetime.end.p0(i64 8, ptr %4) #3
  call void @llvm.lifetime.end.p0(i64 144, ptr %3) #3
  call void @llvm.lifetime.end.p0(i64 1, ptr %2) #3
  %21 = load { i64, i64 }, ptr %1, align 8
  ret { i64, i64 } %21
}

; Function Attrs: mustprogress nounwind
define dso_local void @_ZN4mold11TimerRecord4stopEv(ptr noundef nonnull align 8 dereferenceable(145) %0) #4 align 2 {
  %2 = alloca ptr, align 8
  %3 = alloca i64, align 8
  %4 = alloca i64, align 8
  %5 = alloca %"struct.std::pair", align 8
  %6 = alloca %"class.std::tuple", align 8
  store ptr %0, ptr %2, align 8, !tbaa !59
  %7 = load ptr, ptr %2, align 8
  %8 = getelementptr inbounds nuw %"struct.mold::TimerRecord", ptr %7, i32 0, i32 7
  %9 = load i8, ptr %8, align 8, !tbaa !74, !range !86, !noundef !87
  %10 = trunc i8 %9 to i1
  br i1 %10, label %11, label %12

11:                                               ; preds = %1
  br label %32

12:                                               ; preds = %1
  %13 = getelementptr inbounds nuw %"struct.mold::TimerRecord", ptr %7, i32 0, i32 7
  store i8 1, ptr %13, align 8, !tbaa !74
  call void @llvm.lifetime.start.p0(i64 8, ptr %3) #3
  call void @llvm.lifetime.start.p0(i64 8, ptr %4) #3
  call void @llvm.lifetime.start.p0(i64 16, ptr %5) #3
  %14 = call { i64, i64 } @_ZN4moldL9get_usageEv()
  %15 = getelementptr inbounds nuw { i64, i64 }, ptr %5, i32 0, i32 0
  %16 = extractvalue { i64, i64 } %14, 0
  store i64 %16, ptr %15, align 8
  %17 = getelementptr inbounds nuw { i64, i64 }, ptr %5, i32 0, i32 1
  %18 = extractvalue { i64, i64 } %14, 1
  store i64 %18, ptr %17, align 8
  call void @llvm.lifetime.start.p0(i64 16, ptr %6) #3
  call void @_ZSt3tieIJllEESt5tupleIJDpRT_EES3_(ptr dead_on_unwind writable sret(%"class.std::tuple") align 8 %6, ptr noundef nonnull align 8 dereferenceable(8) %3, ptr noundef nonnull align 8 dereferenceable(8) %4) #3
  %19 = call noundef nonnull align 8 dereferenceable(16) ptr @_ZNSt5tupleIJRlS0_EEaSIllEENSt9enable_ifIXcl12__assignableIT_T0_EEERS1_E4typeEOSt4pairIS4_S5_E(ptr noundef nonnull align 8 dereferenceable(16) %6, ptr noundef nonnull align 8 dereferenceable(16) %5) #3
  call void @llvm.lifetime.end.p0(i64 16, ptr %6) #3
  call void @llvm.lifetime.end.p0(i64 16, ptr %5) #3
  %20 = call noundef i64 @_ZN4moldL8now_nsecEv()
  %21 = getelementptr inbounds nuw %"struct.mold::TimerRecord", ptr %7, i32 0, i32 4
  store i64 %20, ptr %21, align 8, !tbaa !88
  %22 = load i64, ptr %3, align 8, !tbaa !39
  %23 = getelementptr inbounds nuw %"struct.mold::TimerRecord", ptr %7, i32 0, i32 5
  %24 = load i64, ptr %23, align 8, !tbaa !89
  %25 = sub nsw i64 %22, %24
  %26 = getelementptr inbounds nuw %"struct.mold::TimerRecord", ptr %7, i32 0, i32 5
  store i64 %25, ptr %26, align 8, !tbaa !89
  %27 = load i64, ptr %4, align 8, !tbaa !39
  %28 = getelementptr inbounds nuw %"struct.mold::TimerRecord", ptr %7, i32 0, i32 6
  %29 = load i64, ptr %28, align 8, !tbaa !90
  %30 = sub nsw i64 %27, %29
  %31 = getelementptr inbounds nuw %"struct.mold::TimerRecord", ptr %7, i32 0, i32 6
  store i64 %30, ptr %31, align 8, !tbaa !90
  call void @llvm.lifetime.end.p0(i64 8, ptr %4) #3
  call void @llvm.lifetime.end.p0(i64 8, ptr %3) #3
  br label %32

32:                                               ; preds = %12, %11
  ret void
}