; Function Attrs: mustprogress nounwind
define dso_local void @_ZN4mold11TimerRecord4stopEv(ptr noundef nonnull align 8 captures(none) dereferenceable(145) %0) local_unnamed_addr #4 align 2 {
  %2 = alloca %struct.rusage, align 8
  %3 = getelementptr inbounds nuw i8, ptr %0, i64 144
  %4 = load i8, ptr %3, align 8, !tbaa !90, !range !98, !noundef !99
  %5 = trunc nuw i8 %4 to i1
  br i1 %5, label %23, label %6

6:                                                ; preds = %1
  store i8 1, ptr %3, align 8, !tbaa !90
  call void @llvm.lifetime.start.p0(i64 144, ptr nonnull %2) #17
  %7 = call i32 @getrusage(i32 noundef 0, ptr noundef nonnull %2) #17
  %.sroa.01.0.copyload.i = load i64, ptr %2, align 8, !tbaa !42
  %.sroa.22.0..sroa_idx.i = getelementptr inbounds nuw i8, ptr %2, i64 8
  %.sroa.22.0.copyload.i = load i64, ptr %.sroa.22.0..sroa_idx.i, align 8, !tbaa !42
  %8 = mul nsw i64 %.sroa.01.0.copyload.i, 1000000000
  %9 = mul nsw i64 %.sroa.22.0.copyload.i, 1000
  %10 = add nsw i64 %9, %8
  %11 = getelementptr inbounds nuw i8, ptr %2, i64 16
  %.sroa.0.0.copyload.i = load i64, ptr %11, align 8, !tbaa !42
  %.sroa.2.0..sroa_idx.i = getelementptr inbounds nuw i8, ptr %2, i64 24
  %.sroa.2.0.copyload.i = load i64, ptr %.sroa.2.0..sroa_idx.i, align 8, !tbaa !42
  %12 = mul nsw i64 %.sroa.0.0.copyload.i, 1000000000
  %13 = mul nsw i64 %.sroa.2.0.copyload.i, 1000
  %14 = add nsw i64 %13, %12
  call void @llvm.lifetime.end.p0(i64 144, ptr nonnull %2) #17
  %15 = call noundef i64 @_ZNSt6chrono3_V212steady_clock3nowEv() #17
  %16 = getelementptr inbounds nuw i8, ptr %0, i64 120
  store i64 %15, ptr %16, align 8, !tbaa !100
  %17 = getelementptr inbounds nuw i8, ptr %0, i64 128
  %18 = load i64, ptr %17, align 8, !tbaa !101
  %19 = sub i64 %10, %18
  store i64 %19, ptr %17, align 8, !tbaa !101
  %20 = getelementptr inbounds nuw i8, ptr %0, i64 136
  %21 = load i64, ptr %20, align 8, !tbaa !102
  %22 = sub i64 %14, %21
  store i64 %22, ptr %20, align 8, !tbaa !102
  br label %23

23:                                               ; preds = %1, %6
  ret void
}